target datalayout = "e-m:e-p270:32:32-p271:32:32-p272:64:64-i64:64-i128:128-f80:128-n8:16:32:64-S128"
target triple = "x86_64-pc-linux-gnu"

%struct.Aig_Obj_t_ = type { %union.anon, ptr, ptr, i64, i32, i32, %union.anon.0 }
%union.anon = type { ptr }
%union.anon.0 = type { ptr }
%struct.Aig_Man_t_ = type { ptr, ptr, ptr, ptr, ptr, ptr, ptr, %struct.Aig_Obj_t_, i32, i32, i32, i32, i32, i32, [7 x i32], i32, ptr, i32, ptr, i32, ptr, i32, i32, i32, ptr, i32, i32, i32, i32, i32, ptr, ptr, i32, ptr, ptr, i32, ptr, ptr, i32, i32, i32, ptr, ptr, ptr, ptr, ptr, ptr, ptr, ptr, ptr, ptr, ptr, ptr, ptr, ptr, i32, ptr, ptr, ptr, ptr, i32, i64, i64, i64, ptr, ptr }
%struct.Gia_Man_t_ = type { ptr, ptr, i32, i32, i32, i32, ptr, ptr, i32, i32, i32, ptr, ptr, %struct.Vec_Int_t_, %struct.Vec_Int_t_, i32, i32, i32, %struct.Vec_Int_t_, ptr, ptr, ptr, i32, i32, i32, i32, ptr, ptr, ptr, ptr, ptr, i32, i32, ptr, i32, ptr, ptr, ptr, ptr, ptr, ptr, ptr, ptr, ptr, ptr, ptr, ptr, ptr, ptr, ptr, ptr, ptr, ptr, %struct.Vec_Int_t_, %struct.Vec_Int_t_, ptr, ptr, ptr, ptr, ptr, ptr, ptr, ptr, ptr, ptr, ptr, ptr, ptr, ptr, ptr, ptr, ptr, ptr, ptr, ptr, ptr, i32, float, float, ptr, ptr, i32, ptr, ptr, ptr, ptr, ptr, ptr, ptr, ptr, ptr, ptr, ptr, ptr, ptr, ptr, ptr, i64, i64, ptr, ptr, i32, i32, i32, i32, i32, i32, i32, i32, i32, i32, i32, i32, ptr, ptr, ptr, ptr, ptr, ptr, ptr, ptr, i32, i32, i32, ptr, i32, i32, ptr, ptr, ptr, ptr, ptr, ptr, i32, i32, ptr, %struct.Vec_Int_t_, %struct.Vec_Int_t_, %struct.Vec_Int_t_, ptr, ptr, ptr, i32, i32, i32, i32, ptr, ptr, ptr, ptr, ptr }
%struct.Vec_Int_t_ = type { i32, i32, ptr }
%struct.Vec_Ptr_t_ = type { i32, i32, ptr }
%struct.Gia_Obj_t_ = type <{ i64, i32 }>
%struct.Gia_Rpr_t_ = type { i32 }

; Function Attrs: inlinehint nounwind uwtable
define internal ptr @Aig_ManObj(ptr noundef %0, i32 noundef %1) #2 {
  %3 = alloca ptr, align 8
  %4 = alloca i32, align 4
  store ptr %0, ptr %3, align 8, !tbaa !8
  store i32 %1, ptr %4, align 4, !tbaa !26
  %5 = load ptr, ptr %3, align 8, !tbaa !8
  %6 = getelementptr inbounds nuw %struct.Aig_Man_t_, ptr %5, i32 0, i32 4
  %7 = load ptr, ptr %6, align 8, !tbaa !60
  %8 = icmp ne ptr %7, null
  br i1 %8, label %9, label %15

9:                                                ; preds = %2
  %10 = load ptr, ptr %3, align 8, !tbaa !8
  %11 = getelementptr inbounds nuw %struct.Aig_Man_t_, ptr %10, i32 0, i32 4
  %12 = load ptr, ptr %11, align 8, !tbaa !60
  %13 = load i32, ptr %4, align 4, !tbaa !26
  %14 = call ptr @Vec_PtrEntry(ptr noundef %12, i32 noundef %13)
  br label %16

15:                                               ; preds = %2
  br label %16

16:                                               ; preds = %15, %9
  %17 = phi ptr [ %14, %9 ], [ null, %15 ]
  ret ptr %17
}

; Function Attrs: inlinehint nounwind uwtable
define internal ptr @Gia_ObjReprObj(ptr noundef %0, i32 noundef %1) #2 {
  %3 = alloca ptr, align 8
  %4 = alloca i32, align 4
  store ptr %0, ptr %3, align 8, !tbaa !3
  store i32 %1, ptr %4, align 4, !tbaa !26
  %5 = load ptr, ptr %3, align 8, !tbaa !3
  %6 = getelementptr inbounds nuw %struct.Gia_Man_t_, ptr %5, i32 0, i32 27
  %7 = load ptr, ptr %6, align 8, !tbaa !100
  %8 = load i32, ptr %4, align 4, !tbaa !26
  %9 = sext i32 %8 to i64
  %10 = getelementptr inbounds %struct.Gia_Rpr_t_, ptr %7, i64 %9
  %11 = load i32, ptr %10, align 4
  %12 = and i32 %11, 268435455
  %13 = icmp eq i32 %12, 268435455
  br i1 %13, label %14, label %15

14:                                               ; preds = %2
  br label %26

15:                                               ; preds = %2
  %16 = load ptr, ptr %3, align 8, !tbaa !3
  %17 = load ptr, ptr %3, align 8, !tbaa !3
  %18 = getelementptr inbounds nuw %struct.Gia_Man_t_, ptr %17, i32 0, i32 27
  %19 = load ptr, ptr %18, align 8, !tbaa !100
  %20 = load i32, ptr %4, align 4, !tbaa !26
  %21 = sext i32 %20 to i64
  %22 = getelementptr inbounds %struct.Gia_Rpr_t_, ptr %19, i64 %21
  %23 = load i32, ptr %22, align 4
  %24 = and i32 %23, 268435455
  %25 = call ptr @Gia_ManObj(ptr noundef %16, i32 noundef %24)
  br label %26

26:                                               ; preds = %15, %14
  %27 = phi ptr [ null, %14 ], [ %25, %15 ]
  ret ptr %27
}

; Function Attrs: inlinehint nounwind uwtable
define internal i32 @Aig_ManObjNumMax(ptr noundef %0) #2 {
  %2 = alloca ptr, align 8
  store ptr %0, ptr %2, align 8, !tbaa !8
  %3 = load ptr, ptr %2, align 8, !tbaa !8
  %4 = getelementptr inbounds nuw %struct.Aig_Man_t_, ptr %3, i32 0, i32 4
  %5 = load ptr, ptr %4, align 8, !tbaa !60
  %6 = call i32 @Vec_PtrSize(ptr noundef %5)
  ret i32 %6
}

; Function Attrs: inlinehint nounwind uwtable
define internal ptr @Gia_ManObj(ptr noundef %0, i32 noundef %1) #2 {
  %3 = alloca ptr, align 8
  %4 = alloca i32, align 4
  store ptr %0, ptr %3, align 8, !tbaa !3
  store i32 %1, ptr %4, align 4, !tbaa !26
  %5 = load ptr, ptr %3, align 8, !tbaa !3
  %6 = getelementptr inbounds nuw %struct.Gia_Man_t_, ptr %5, i32 0, i32 6
  %7 = load ptr, ptr %6, align 8, !tbaa !73
  %8 = load i32, ptr %4, align 4, !tbaa !26
  %9 = sext i32 %8 to i64
  %10 = getelementptr inbounds %struct.Gia_Obj_t_, ptr %7, i64 %9
  ret ptr %10
}

; Function Attrs: inlinehint nounwind uwtable
define internal i32 @Abc_Lit2Var(i32 noundef %0) #2 {
  %2 = alloca i32, align 4
  store i32 %0, ptr %2, align 4, !tbaa !26
  %3 = load i32, ptr %2, align 4, !tbaa !26
  %4 = ashr i32 %3, 1
  ret i32 %4
}

; Function Attrs: inlinehint nounwind uwtable
define internal ptr @Vec_PtrEntry(ptr noundef %0, i32 noundef %1) #2 {
  %3 = alloca ptr, align 8
  %4 = alloca i32, align 4
  store ptr %0, ptr %3, align 8, !tbaa !64
  store i32 %1, ptr %4, align 4, !tbaa !26
  %5 = load ptr, ptr %3, align 8, !tbaa !64
  %6 = getelementptr inbounds nuw %struct.Vec_Ptr_t_, ptr %5, i32 0, i32 2
  %7 = load ptr, ptr %6, align 8, !tbaa !67
  %8 = load i32, ptr %4, align 4, !tbaa !26
  %9 = sext i32 %8 to i64
  %10 = getelementptr inbounds ptr, ptr %7, i64 %9
  %11 = load ptr, ptr %10, align 8, !tbaa !68
  ret ptr %11
}

; Function Attrs: inlinehint nounwind uwtable
define internal i32 @Vec_PtrSize(ptr noundef %0) #2 {
  %2 = alloca ptr, align 8
  store ptr %0, ptr %2, align 8, !tbaa !64
  %3 = load ptr, ptr %2, align 8, !tbaa !64
  %4 = getelementptr inbounds nuw %struct.Vec_Ptr_t_, ptr %3, i32 0, i32 1
  %5 = load i32, ptr %4, align 4, !tbaa !65
  ret i32 %5
}

; Function Attrs: nounwind uwtable
define void @Gia_ManReprToAigRepr(ptr noundef %0, ptr noundef %1) #0 {
  %3 = alloca ptr, align 8
  %4 = alloca ptr, align 8
  %5 = alloca ptr, align 8
  %6 = alloca ptr, align 8
  %7 = alloca ptr, align 8
  %8 = alloca i32, align 4
  store ptr %0, ptr %3, align 8, !tbaa !8
  store ptr %1, ptr %4, align 8, !tbaa !3
  call void @llvm.lifetime.start.p0(i64 8, ptr %5) #12
  call void @llvm.lifetime.start.p0(i64 8, ptr %6) #12
  call void @llvm.lifetime.start.p0(i64 8, ptr %7) #12
  call void @llvm.lifetime.start.p0(i64 4, ptr %8) #12
  store i32 0, ptr %8, align 4, !tbaa !26
  br label %9

9:                                                ; preds = %39, %2
  %10 = load i32, ptr %8, align 4, !tbaa !26
  %11 = load ptr, ptr %3, align 8, !tbaa !8
  %12 = getelementptr inbounds nuw %struct.Aig_Man_t_, ptr %11, i32 0, i32 4
  %13 = load ptr, ptr %12, align 8, !tbaa !60
  %14 = call i32 @Vec_PtrSize(ptr noundef %13)
  %15 = icmp slt i32 %10, %14
  br i1 %15, label %16, label %22

16:                                               ; preds = %9
  %17 = load ptr, ptr %3, align 8, !tbaa !8
  %18 = getelementptr inbounds nuw %struct.Aig_Man_t_, ptr %17, i32 0, i32 4
  %19 = load ptr, ptr %18, align 8, !tbaa !60
  %20 = load i32, ptr %8, align 4, !tbaa !26
  %21 = call ptr @Vec_PtrEntry(ptr noundef %19, i32 noundef %20)
  store ptr %21, ptr %5, align 8, !tbaa !10
  br label %22

22:                                               ; preds = %16, %9
  %23 = phi i1 [ false, %9 ], [ true, %16 ]
  br i1 %23, label %24, label %42

24:                                               ; preds = %22
  %25 = load ptr, ptr %5, align 8, !tbaa !10
  %26 = icmp eq ptr %25, null
  br i1 %26, label %27, label %28

27:                                               ; preds = %24
  br label %38

28:                                               ; preds = %24
  %29 = load ptr, ptr %4, align 8, !tbaa !3
  %30 = load ptr, ptr %5, align 8, !tbaa !10
  %31 = getelementptr inbounds nuw %struct.Aig_Obj_t_, ptr %30, i32 0, i32 6
  %32 = load i32, ptr %31, align 8, !tbaa !12
  %33 = call i32 @Abc_Lit2Var(i32 noundef %32)
  %34 = call ptr @Gia_ManObj(ptr noundef %29, i32 noundef %33)
  store ptr %34, ptr %6, align 8, !tbaa !42
  %35 = load i32, ptr %8, align 4, !tbaa !26
  %36 = load ptr, ptr %6, align 8, !tbaa !42
  %37 = getelementptr inbounds nuw %struct.Gia_Obj_t_, ptr %36, i32 0, i32 1
  store i32 %35, ptr %37, align 4, !tbaa !95
  br label %38

38:                                               ; preds = %28, %27
  br label %39

39:                                               ; preds = %38
  %40 = load i32, ptr %8, align 4, !tbaa !26
  %41 = add nsw i32 %40, 1
  store i32 %41, ptr %8, align 4, !tbaa !26
  br label %9, !llvm.loop !98

42:                                               ; preds = %22
  %43 = load ptr, ptr %3, align 8, !tbaa !8
  %44 = load ptr, ptr %3, align 8, !tbaa !8
  %45 = call i32 @Aig_ManObjNumMax(ptr noundef %44)
  call void @Aig_ManReprStart(ptr noundef %43, i32 noundef %45)
  store i32 0, ptr %8, align 4, !tbaa !26
  br label %46

46:                                               ; preds = %78, %42
  %47 = load i32, ptr %8, align 4, !tbaa !26
  %48 = load ptr, ptr %4, align 8, !tbaa !3
  %49 = getelementptr inbounds nuw %struct.Gia_Man_t_, ptr %48, i32 0, i32 4
  %50 = load i32, ptr %49, align 8, !tbaa !75
  %51 = icmp slt i32 %47, %50
  br i1 %51, label %52, label %57

52:                                               ; preds = %46
  %53 = load ptr, ptr %4, align 8, !tbaa !3
  %54 = load i32, ptr %8, align 4, !tbaa !26
  %55 = call ptr @Gia_ManObj(ptr noundef %53, i32 noundef %54)
  store ptr %55, ptr %6, align 8, !tbaa !42
  %56 = icmp ne ptr %55, null
  br label %57

57:                                               ; preds = %52, %46
  %58 = phi i1 [ false, %46 ], [ %56, %52 ]
  br i1 %58, label %59, label %81

59:                                               ; preds = %57
  %60 = load ptr, ptr %4, align 8, !tbaa !3
  %61 = load i32, ptr %8, align 4, !tbaa !26
  %62 = call ptr @Gia_ObjReprObj(ptr noundef %60, i32 noundef %61)
  store ptr %62, ptr %7, align 8, !tbaa !42
  %63 = load ptr, ptr %7, align 8, !tbaa !42
  %64 = icmp eq ptr %63, null
  br i1 %64, label %65, label %66

65:                                               ; preds = %59
  br label %78

66:                                               ; preds = %59
  %67 = load ptr, ptr %3, align 8, !tbaa !8
  %68 = load ptr, ptr %3, align 8, !tbaa !8
  %69 = load ptr, ptr %7, align 8, !tbaa !42
  %70 = getelementptr inbounds nuw %struct.Gia_Obj_t_, ptr %69, i32 0, i32 1
  %71 = load i32, ptr %70, align 4, !tbaa !95
  %72 = call ptr @Aig_ManObj(ptr noundef %68, i32 noundef %71)
  %73 = load ptr, ptr %3, align 8, !tbaa !8
  %74 = load ptr, ptr %6, align 8, !tbaa !42
  %75 = getelementptr inbounds nuw %struct.Gia_Obj_t_, ptr %74, i32 0, i32 1
  %76 = load i32, ptr %75, align 4, !tbaa !95
  %77 = call ptr @Aig_ManObj(ptr noundef %73, i32 noundef %76)
  call void @Aig_ObjCreateRepr(ptr noundef %67, ptr noundef %72, ptr noundef %77)
  br label %78

78:                                               ; preds = %66, %65
  %79 = load i32, ptr %8, align 4, !tbaa !26
  %80 = add nsw i32 %79, 1
  store i32 %80, ptr %8, align 4, !tbaa !26
  br label %46, !llvm.loop !99

81:                                               ; preds = %57
  call void @llvm.lifetime.end.p0(i64 4, ptr %8) #12
  call void @llvm.lifetime.end.p0(i64 8, ptr %7) #12
  call void @llvm.lifetime.end.p0(i64 8, ptr %6) #12
  call void @llvm.lifetime.end.p0(i64 8, ptr %5) #12
  ret void
}