; Function Attrs: nounwind uwtable
define void @Gia_ManReprToAigRepr(ptr noundef %0, ptr noundef readonly captures(none) %1) local_unnamed_addr #0 {
  %3 = getelementptr inbounds nuw i8, ptr %0, i64 32
  %4 = load ptr, ptr %3, align 8, !tbaa !46
  %5 = getelementptr i8, ptr %4, i64 4
  %.val30 = load i32, ptr %5, align 4, !tbaa !48
  %6 = icmp sgt i32 %.val30, 0
  br i1 %6, label %.lr.ph, label %.critedge

.lr.ph:                                           ; preds = %2
  %7 = getelementptr i8, ptr %4, i64 8
  %.val31 = load ptr, ptr %7, align 8, !tbaa !59
  %8 = getelementptr i8, ptr %1, i64 32
  %wide.trip.count = zext nneg i32 %.val30 to i64
  br label %9

9:                                                ; preds = %.lr.ph, %20
  %indvars.iv = phi i64 [ 0, %.lr.ph ], [ %indvars.iv.next, %20 ]
  %10 = getelementptr inbounds nuw ptr, ptr %.val31, i64 %indvars.iv
  %11 = load ptr, ptr %10, align 8, !tbaa !60
  %12 = icmp eq ptr %11, null
  br i1 %12, label %20, label %13

13:                                               ; preds = %9
  %14 = getelementptr inbounds nuw i8, ptr %11, i64 40
  %15 = load i32, ptr %14, align 8, !tbaa !3
  %16 = ashr i32 %15, 1
  %.val29 = load ptr, ptr %8, align 8, !tbaa !41
  %17 = sext i32 %16 to i64
  %18 = getelementptr inbounds %struct.Gia_Obj_t_, ptr %.val29, i64 %17, i32 1
  %19 = trunc nuw nsw i64 %indvars.iv to i32
  store i32 %19, ptr %18, align 4, !tbaa !90
  br label %20

20:                                               ; preds = %13, %9
  %indvars.iv.next = add nuw nsw i64 %indvars.iv, 1
  %exitcond.not = icmp eq i64 %indvars.iv.next, %wide.trip.count
  br i1 %exitcond.not, label %.critedge, label %9, !llvm.loop !93

.critedge:                                        ; preds = %20, %2
  tail call void @Aig_ManReprStart(ptr noundef nonnull %0, i32 noundef %.val30) #17
  %21 = getelementptr i8, ptr %1, i64 32
  %22 = getelementptr inbounds nuw i8, ptr %1, i64 24
  %23 = load i32, ptr %22, align 8, !tbaa !73
  %24 = icmp sgt i32 %23, 0
  br i1 %24, label %.lr.ph41, label %.critedge2

.lr.ph41:                                         ; preds = %.critedge
  %25 = getelementptr inbounds nuw i8, ptr %1, i64 192
  br label %26

26:                                               ; preds = %.lr.ph41, %Gia_ObjReprObj.exit.thread
  %27 = phi i32 [ %23, %.lr.ph41 ], [ %49, %Gia_ObjReprObj.exit.thread ]
  %indvars.iv44 = phi i64 [ 0, %.lr.ph41 ], [ %indvars.iv.next45, %Gia_ObjReprObj.exit.thread ]
  %.val = load ptr, ptr %21, align 8, !tbaa !41
  %.not = icmp eq ptr %.val, null
  br i1 %.not, label %.critedge2, label %28

28:                                               ; preds = %26
  %29 = load ptr, ptr %25, align 8, !tbaa !94
  %30 = getelementptr inbounds nuw %struct.Gia_Rpr_t_, ptr %29, i64 %indvars.iv44
  %31 = load i32, ptr %30, align 4
  %32 = and i32 %31, 268435455
  %33 = icmp eq i32 %32, 268435455
  br i1 %33, label %Gia_ObjReprObj.exit.thread, label %Gia_ObjReprObj.exit

Gia_ObjReprObj.exit:                              ; preds = %28
  %.val33 = load ptr, ptr %3, align 8, !tbaa !46
  %.not.i = icmp eq ptr %.val33, null
  br i1 %.not.i, label %Aig_ManObj.exit38, label %34

34:                                               ; preds = %Gia_ObjReprObj.exit
  %35 = zext nneg i32 %32 to i64
  %36 = getelementptr inbounds nuw %struct.Gia_Obj_t_, ptr %.val, i64 %35, i32 1
  %37 = load i32, ptr %36, align 4, !tbaa !90
  %38 = getelementptr i8, ptr %.val33, i64 8
  %.val.i35 = load ptr, ptr %38, align 8, !tbaa !59
  %39 = sext i32 %37 to i64
  %40 = getelementptr inbounds ptr, ptr %.val.i35, i64 %39
  %41 = load ptr, ptr %40, align 8, !tbaa !60
  %42 = getelementptr inbounds nuw %struct.Gia_Obj_t_, ptr %.val, i64 %indvars.iv44, i32 1
  %43 = load i32, ptr %42, align 4, !tbaa !90
  %44 = sext i32 %43 to i64
  %45 = getelementptr inbounds ptr, ptr %.val.i35, i64 %44
  %46 = load ptr, ptr %45, align 8, !tbaa !60
  br label %Aig_ManObj.exit38

Aig_ManObj.exit38:                                ; preds = %Gia_ObjReprObj.exit, %34
  %47 = phi ptr [ %41, %34 ], [ null, %Gia_ObjReprObj.exit ]
  %48 = phi ptr [ %46, %34 ], [ null, %Gia_ObjReprObj.exit ]
  tail call void @Aig_ObjCreateRepr(ptr noundef nonnull %0, ptr noundef %47, ptr noundef %48) #17
  %.pre = load i32, ptr %22, align 8, !tbaa !73
  br label %Gia_ObjReprObj.exit.thread

Gia_ObjReprObj.exit.thread:                       ; preds = %28, %Aig_ManObj.exit38
  %49 = phi i32 [ %27, %28 ], [ %.pre, %Aig_ManObj.exit38 ]
  %indvars.iv.next45 = add nuw nsw i64 %indvars.iv44, 1
  %50 = sext i32 %49 to i64
  %51 = icmp slt i64 %indvars.iv.next45, %50
  br i1 %51, label %26, label %.critedge2, !llvm.loop !95

.critedge2:                                       ; preds = %26, %Gia_ObjReprObj.exit.thread, %.critedge
  ret void
}